; Function Attrs: mustprogress uwtable
define noundef i32 @_ZN3gmx20runCommandLineModuleEiPPcPKcS3_St8functionIFSt10unique_ptrINS_25ICommandLineOptionsModuleESt14default_deleteIS6_EEvEE(i32 noundef %0, ptr noundef %1, ptr noundef %2, ptr noundef %3, ptr noundef captures(none) %4) local_unnamed_addr #7 personality ptr @__gxx_personality_v0 {
  %6 = alloca %"class.std::function", align 8
  %7 = getelementptr inbounds nuw i8, ptr %6, i64 24
  %8 = getelementptr inbounds nuw i8, ptr %4, i64 24
  call void @llvm.memset.p0.i64(ptr noundef nonnull align 8 dereferenceable(32) %6, i8 0, i64 24, i1 false)
  %9 = load ptr, ptr %8, align 8, !tbaa !34
  store ptr %9, ptr %7, align 8, !tbaa !34
  %10 = getelementptr inbounds nuw i8, ptr %4, i64 16
  %11 = load ptr, ptr %10, align 8, !tbaa !37
  %.not.i.i.not.i = icmp eq ptr %11, null
  br i1 %.not.i.i.not.i, label %_ZNSt8functionIFSt10unique_ptrIN3gmx25ICommandLineOptionsModuleESt14default_deleteIS2_EEvEEC2EOS7_.exit, label %12

12:                                               ; preds = %5
  %13 = getelementptr inbounds nuw i8, ptr %6, i64 16
  call void @llvm.memcpy.p0.p0.i64(ptr noundef nonnull align 8 dereferenceable(32) %6, ptr noundef nonnull align 8 dereferenceable(32) %4, i64 16, i1 false), !tbaa.struct !38
  store ptr %11, ptr %13, align 8, !tbaa !37
  tail call void @llvm.memset.p0.i64(ptr noundef nonnull align 8 dereferenceable(16) %10, i8 0, i64 16, i1 false)
  br label %_ZNSt8functionIFSt10unique_ptrIN3gmx25ICommandLineOptionsModuleESt14default_deleteIS2_EEvEEC2EOS7_.exit

_ZNSt8functionIFSt10unique_ptrIN3gmx25ICommandLineOptionsModuleESt14default_deleteIS2_EEvEEC2EOS7_.exit: ; preds = %5, %12
  %14 = invoke noundef i32 @_ZN3gmx25ICommandLineOptionsModule9runAsMainEiPPcPKcS4_St8functionIFSt10unique_ptrIS0_St14default_deleteIS0_EEvEE(i32 noundef %0, ptr noundef %1, ptr noundef %2, ptr noundef %3, ptr noundef nonnull %6)
          to label %15 unwind label %23

15:                                               ; preds = %_ZNSt8functionIFSt10unique_ptrIN3gmx25ICommandLineOptionsModuleESt14default_deleteIS2_EEvEEC2EOS7_.exit
  %16 = getelementptr inbounds nuw i8, ptr %6, i64 16
  %17 = load ptr, ptr %16, align 8, !tbaa !37
  %.not.i = icmp eq ptr %17, null
  br i1 %.not.i, label %_ZNSt14_Function_baseD2Ev.exit, label %18

18:                                               ; preds = %15
  %19 = invoke noundef zeroext i1 %17(ptr noundef nonnull align 8 dereferenceable(32) %6, ptr noundef nonnull align 8 dereferenceable(32) %6, i32 noundef 3)
          to label %_ZNSt14_Function_baseD2Ev.exit unwind label %20

20:                                               ; preds = %18
  %21 = landingpad { ptr, i32 }
          catch ptr null
  %22 = extractvalue { ptr, i32 } %21, 0
  call void @__clang_call_terminate(ptr %22) #18
  unreachable

_ZNSt14_Function_baseD2Ev.exit:                   ; preds = %15, %18
  ret i32 %14

23:                                               ; preds = %_ZNSt8functionIFSt10unique_ptrIN3gmx25ICommandLineOptionsModuleESt14default_deleteIS2_EEvEEC2EOS7_.exit
  %24 = landingpad { ptr, i32 }
          cleanup
  %25 = getelementptr inbounds nuw i8, ptr %6, i64 16
  %26 = load ptr, ptr %25, align 8, !tbaa !37
  %.not.i5 = icmp eq ptr %26, null
  br i1 %.not.i5, label %_ZNSt14_Function_baseD2Ev.exit6, label %27

27:                                               ; preds = %23
  %28 = invoke noundef zeroext i1 %26(ptr noundef nonnull align 8 dereferenceable(32) %6, ptr noundef nonnull align 8 dereferenceable(32) %6, i32 noundef 3)
          to label %_ZNSt14_Function_baseD2Ev.exit6 unwind label %29

29:                                               ; preds = %27
  %30 = landingpad { ptr, i32 }
          catch ptr null
  %31 = extractvalue { ptr, i32 } %30, 0
  call void @__clang_call_terminate(ptr %31) #18
  unreachable

_ZNSt14_Function_baseD2Ev.exit6:                  ; preds = %23, %27
  resume { ptr, i32 } %24
}